; Function Attrs: mustprogress uwtable
define void @_ZN6colvar11alch_lambda10calc_valueEv(ptr noundef nonnull align 8 dereferenceable(1608) %0) unnamed_addr #2 align 2 {
  %2 = load ptr, ptr @_ZN12colvarmodule5proxyE, align 8, !tbaa !4
  %3 = getelementptr inbounds nuw i8, ptr %0, i64 936
  %4 = load ptr, ptr %2, align 8, !tbaa !9
  %5 = getelementptr inbounds nuw i8, ptr %4, i64 112
  %6 = load ptr, ptr %5, align 8
  %7 = tail call noundef i32 %6(ptr noundef nonnull align 8 dereferenceable(256) %2, ptr noundef nonnull %3)
  %8 = load double, ptr %3, align 8, !tbaa !11
  %9 = load ptr, ptr @_ZN12colvarmodule5proxyE, align 8, !tbaa !4
  %10 = getelementptr inbounds nuw i8, ptr %9, i64 40
  %11 = load double, ptr %10, align 8, !tbaa !87
  %12 = fsub double %11, %8
  store double %12, ptr %3, align 8, !tbaa !11
  store double 0.000000e+00, ptr %10, align 8, !tbaa !87
  ret void
}